target datalayout = "e-m:e-p270:32:32-p271:32:32-p272:64:64-i64:64-i128:128-f80:128-n8:16:32:64-S128"
target triple = "x86_64-pc-linux-gnu"

%"struct.Assimp::IFC::Schema_2x3::IfcRepresentationItem.base" = type { %"struct.Assimp::STEP::ObjectHelper.base" }
%"struct.Assimp::STEP::ObjectHelper.base" = type <{ ptr, i8 }>
%"class.std::bitset" = type { %"struct.std::_Base_bitset" }
%"struct.std::_Base_bitset" = type { i64 }
%"class.Assimp::STEP::Object" = type { ptr, i64, ptr }
%"struct.Assimp::IFC::Schema_2x3::IfcGeometricRepresentationItem.base" = type { %"struct.Assimp::IFC::Schema_2x3::IfcRepresentationItem.base", [7 x i8], %"struct.Assimp::STEP::ObjectHelper.base.7" }
%"struct.Assimp::STEP::ObjectHelper.base.7" = type <{ ptr, i8 }>
%"class.__gnu_cxx::__normal_iterator.116" = type { ptr }
%"struct.Assimp::IFC::Schema_2x3::IfcCartesianPoint" = type { %"struct.Assimp::IFC::Schema_2x3::IfcPoint.base", %"struct.Assimp::STEP::ObjectHelper.base.11", %"struct.Assimp::STEP::ListOf.12", %"class.Assimp::STEP::Object" }
%"struct.Assimp::IFC::Schema_2x3::IfcPoint.base" = type { %"struct.Assimp::IFC::Schema_2x3::IfcGeometricRepresentationItem.base", [7 x i8], %"struct.Assimp::STEP::ObjectHelper.base.9" }
%"struct.Assimp::STEP::ObjectHelper.base.9" = type <{ ptr, i8 }>
%"struct.Assimp::STEP::ObjectHelper.base.11" = type { ptr, %"class.std::bitset" }
%"struct.Assimp::STEP::ListOf.12" = type { %"class.std::vector.13" }
%"class.std::vector.13" = type { %"struct.std::_Vector_base.14" }
%"struct.std::_Vector_base.14" = type { %"struct.std::_Vector_base<double, std::allocator<double>>::_Vector_impl" }
%"struct.std::_Vector_base<double, std::allocator<double>>::_Vector_impl" = type { %"struct.std::_Vector_base<double, std::allocator<double>>::_Vector_impl_data" }
%"struct.std::_Vector_base<double, std::allocator<double>>::_Vector_impl_data" = type { ptr, ptr, ptr }

@.str.7 = private unnamed_addr constant [49 x i8] c"unable to compare differently-dimensioned points\00", align 1

; Function Attrs: mustprogress nounwind uwtable
define linkonce_odr noundef nonnull align 8 dereferenceable(8) ptr @_ZNK9__gnu_cxx17__normal_iteratorIPdSt6vectorIdSaIdEEE4baseEv(ptr noundef nonnull align 8 dereferenceable(8) %0) #3 comdat align 2 {
  %2 = alloca ptr, align 8
  store ptr %0, ptr %2, align 8
  %3 = load ptr, ptr %2, align 8
  %4 = getelementptr inbounds nuw %"class.__gnu_cxx::__normal_iterator.116", ptr %3, i32 0, i32 0
  ret ptr %4
}

; Function Attrs: mustprogress nounwind uwtable
define linkonce_odr void @_ZN9__gnu_cxx17__normal_iteratorIPdSt6vectorIdSaIdEEEC2ERKS1_(ptr noundef nonnull align 8 dereferenceable(8) %0, ptr noundef nonnull align 8 dereferenceable(8) %1) unnamed_addr #3 comdat align 2 {
  %3 = alloca ptr, align 8
  %4 = alloca ptr, align 8
  store ptr %0, ptr %3, align 8
  store ptr %1, ptr %4, align 8
  %5 = load ptr, ptr %3, align 8
  %6 = getelementptr inbounds nuw %"class.__gnu_cxx::__normal_iterator.116", ptr %5, i32 0, i32 0
  %7 = load ptr, ptr %4, align 8
  %8 = load ptr, ptr %7, align 8
  store ptr %8, ptr %6, align 8
  ret void
}

; Function Attrs: mustprogress nounwind uwtable
define linkonce_odr ptr @_ZN9__gnu_cxx17__normal_iteratorIPdSt6vectorIdSaIdEEEppEi(ptr noundef nonnull align 8 dereferenceable(8) %0, i32 noundef %1) #3 comdat align 2 {
  %3 = alloca %"class.__gnu_cxx::__normal_iterator.116", align 8
  %4 = alloca ptr, align 8
  %5 = alloca i32, align 4
  %6 = alloca ptr, align 8
  store ptr %0, ptr %4, align 8
  store i32 %1, ptr %5, align 4
  %7 = load ptr, ptr %4, align 8
  call void @llvm.lifetime.start.p0(i64 8, ptr %6) #24
  %8 = getelementptr inbounds nuw %"class.__gnu_cxx::__normal_iterator.116", ptr %7, i32 0, i32 0
  %9 = load ptr, ptr %8, align 8
  %10 = getelementptr inbounds nuw double, ptr %9, i32 1
  store ptr %10, ptr %8, align 8
  store ptr %9, ptr %6, align 8
  call void @_ZN9__gnu_cxx17__normal_iteratorIPdSt6vectorIdSaIdEEEC2ERKS1_(ptr noundef nonnull align 8 dereferenceable(8) %3, ptr noundef nonnull align 8 dereferenceable(8) %6) #24
  call void @llvm.lifetime.end.p0(i64 8, ptr %6) #24
  %11 = getelementptr inbounds nuw %"class.__gnu_cxx::__normal_iterator.116", ptr %3, i32 0, i32 0
  %12 = load ptr, ptr %11, align 8
  ret ptr %12
}

; Function Attrs: mustprogress nounwind uwtable
define linkonce_odr noundef nonnull align 8 dereferenceable(8) ptr @_ZNK9__gnu_cxx17__normal_iteratorIPdSt6vectorIdSaIdEEEdeEv(ptr noundef nonnull align 8 dereferenceable(8) %0) #3 comdat align 2 {
  %2 = alloca ptr, align 8
  store ptr %0, ptr %2, align 8
  %3 = load ptr, ptr %2, align 8
  %4 = getelementptr inbounds nuw %"class.__gnu_cxx::__normal_iterator.116", ptr %3, i32 0, i32 0
  %5 = load ptr, ptr %4, align 8
  ret ptr %5
}

; Function Attrs: inlinehint mustprogress nounwind uwtable
define linkonce_odr noundef zeroext i1 @_ZN9__gnu_cxxneIPdSt6vectorIdSaIdEEEEbRKNS_17__normal_iteratorIT_T0_EESA_(ptr noundef nonnull align 8 dereferenceable(8) %0, ptr noundef nonnull align 8 dereferenceable(8) %1) #4 comdat {
  %3 = alloca ptr, align 8
  %4 = alloca ptr, align 8
  store ptr %0, ptr %3, align 8
  store ptr %1, ptr %4, align 8
  %5 = load ptr, ptr %3, align 8
  %6 = call noundef nonnull align 8 dereferenceable(8) ptr @_ZNK9__gnu_cxx17__normal_iteratorIPdSt6vectorIdSaIdEEE4baseEv(ptr noundef nonnull align 8 dereferenceable(8) %5) #24
  %7 = load ptr, ptr %6, align 8
  %8 = load ptr, ptr %4, align 8
  %9 = call noundef nonnull align 8 dereferenceable(8) ptr @_ZNK9__gnu_cxx17__normal_iteratorIPdSt6vectorIdSaIdEEE4baseEv(ptr noundef nonnull align 8 dereferenceable(8) %8) #24
  %10 = load ptr, ptr %9, align 8
  %11 = icmp ne ptr %7, %10
  ret i1 %11
}

; Function Attrs: mustprogress nounwind uwtable
define linkonce_odr ptr @_ZNSt6vectorIdSaIdEE3endEv(ptr noundef nonnull align 8 dereferenceable(24) %0) #3 comdat align 2 {
  %2 = alloca %"class.__gnu_cxx::__normal_iterator.116", align 8
  %3 = alloca ptr, align 8
  store ptr %0, ptr %3, align 8
  %4 = load ptr, ptr %3, align 8
  %5 = getelementptr inbounds nuw %"struct.std::_Vector_base.14", ptr %4, i32 0, i32 0
  %6 = getelementptr inbounds nuw %"struct.std::_Vector_base<double, std::allocator<double>>::_Vector_impl_data", ptr %5, i32 0, i32 1
  call void @_ZN9__gnu_cxx17__normal_iteratorIPdSt6vectorIdSaIdEEEC2ERKS1_(ptr noundef nonnull align 8 dereferenceable(8) %2, ptr noundef nonnull align 8 dereferenceable(8) %6) #24
  %7 = getelementptr inbounds nuw %"class.__gnu_cxx::__normal_iterator.116", ptr %2, i32 0, i32 0
  %8 = load ptr, ptr %7, align 8
  ret ptr %8
}

; Function Attrs: mustprogress nounwind uwtable
define linkonce_odr ptr @_ZNSt6vectorIdSaIdEE5beginEv(ptr noundef nonnull align 8 dereferenceable(24) %0) #3 comdat align 2 {
  %2 = alloca %"class.__gnu_cxx::__normal_iterator.116", align 8
  %3 = alloca ptr, align 8
  store ptr %0, ptr %3, align 8
  %4 = load ptr, ptr %3, align 8
  %5 = getelementptr inbounds nuw %"struct.std::_Vector_base.14", ptr %4, i32 0, i32 0
  %6 = getelementptr inbounds nuw %"struct.std::_Vector_base<double, std::allocator<double>>::_Vector_impl_data", ptr %5, i32 0, i32 0
  call void @_ZN9__gnu_cxx17__normal_iteratorIPdSt6vectorIdSaIdEEEC2ERKS1_(ptr noundef nonnull align 8 dereferenceable(8) %2, ptr noundef nonnull align 8 dereferenceable(8) %6) #24
  %7 = getelementptr inbounds nuw %"class.__gnu_cxx::__normal_iterator.116", ptr %2, i32 0, i32 0
  %8 = load ptr, ptr %7, align 8
  ret ptr %8
}

; Function Attrs: mustprogress uwtable
define linkonce_odr hidden void @_ZN6Assimp12LogFunctionsINS_11IFCImporterEE7LogWarnIJRA49_KcEEEvDpOT_(ptr noundef nonnull align 1 dereferenceable(49) %0) #1 comdat align 2 {
  %2 = alloca ptr, align 8
  %3 = alloca ptr, align 8
  store ptr %0, ptr %2, align 8
  %4 = call noundef zeroext i1 @_ZN6Assimp13DefaultLogger12isNullLoggerEv()
  br i1 %4, label %9, label %5

5:                                                ; preds = %1
  %6 = call noundef ptr @_ZN6Assimp13DefaultLogger3getEv()
  call void @llvm.lifetime.start.p0(i64 8, ptr %3) #24
  %7 = call noundef ptr @_ZN6Assimp12LogFunctionsINS_11IFCImporterEE6PrefixEv()
  store ptr %7, ptr %3, align 8
  %8 = load ptr, ptr %2, align 8
  call void @_ZN6Assimp6Logger4warnIJPKcRA49_S2_EEEvDpOT_(ptr noundef nonnull align 8 dereferenceable(12) %6, ptr noundef nonnull align 8 dereferenceable(8) %3, ptr noundef nonnull align 1 dereferenceable(49) %8)
  call void @llvm.lifetime.end.p0(i64 8, ptr %3) #24
  br label %9

9:                                                ; preds = %5, %1
  ret void
}

; Function Attrs: mustprogress nounwind uwtable
define linkonce_odr noundef i64 @_ZNKSt6vectorIdSaIdEE4sizeEv(ptr noundef nonnull align 8 dereferenceable(24) %0) #3 comdat align 2 {
  %2 = alloca ptr, align 8
  store ptr %0, ptr %2, align 8
  %3 = load ptr, ptr %2, align 8
  %4 = getelementptr inbounds nuw %"struct.std::_Vector_base.14", ptr %3, i32 0, i32 0
  %5 = getelementptr inbounds nuw %"struct.std::_Vector_base<double, std::allocator<double>>::_Vector_impl_data", ptr %4, i32 0, i32 1
  %6 = load ptr, ptr %5, align 8
  %7 = getelementptr inbounds nuw %"struct.std::_Vector_base.14", ptr %3, i32 0, i32 0
  %8 = getelementptr inbounds nuw %"struct.std::_Vector_base<double, std::allocator<double>>::_Vector_impl_data", ptr %7, i32 0, i32 0
  %9 = load ptr, ptr %8, align 8
  %10 = ptrtoint ptr %6 to i64
  %11 = ptrtoint ptr %9 to i64
  %12 = sub i64 %10, %11
  %13 = sdiv exact i64 %12, 8
  ret i64 %13
}

; Function Attrs: mustprogress uwtable
define hidden noundef zeroext i1 @_ZN6Assimp3IFC8areCloseENS0_10Schema_2x317IfcCartesianPointES2_(ptr noundef %0, ptr noundef %1) #1 {
  %3 = alloca i1, align 1
  %4 = alloca ptr, align 8
  %5 = alloca ptr, align 8
  %6 = alloca %"class.__gnu_cxx::__normal_iterator.116", align 8
  %7 = alloca %"class.__gnu_cxx::__normal_iterator.116", align 8
  %8 = alloca %"class.__gnu_cxx::__normal_iterator.116", align 8
  %9 = alloca i32, align 4
  %10 = alloca %"class.__gnu_cxx::__normal_iterator.116", align 8
  %11 = alloca %"class.__gnu_cxx::__normal_iterator.116", align 8
  store ptr %0, ptr %4, align 8
  store ptr %1, ptr %5, align 8
  %12 = getelementptr inbounds nuw %"struct.Assimp::IFC::Schema_2x3::IfcCartesianPoint", ptr %0, i32 0, i32 2
  %13 = call noundef i64 @_ZNKSt6vectorIdSaIdEE4sizeEv(ptr noundef nonnull align 8 dereferenceable(24) %12) #24
  %14 = getelementptr inbounds nuw %"struct.Assimp::IFC::Schema_2x3::IfcCartesianPoint", ptr %1, i32 0, i32 2
  %15 = call noundef i64 @_ZNKSt6vectorIdSaIdEE4sizeEv(ptr noundef nonnull align 8 dereferenceable(24) %14) #24
  %16 = icmp ne i64 %13, %15
  br i1 %16, label %17, label %18

17:                                               ; preds = %2
  call void @_ZN6Assimp12LogFunctionsINS_11IFCImporterEE7LogWarnIJRA49_KcEEEvDpOT_(ptr noundef nonnull align 1 dereferenceable(49) @.str.7)
  store i1 false, ptr %3, align 1
  br label %47

18:                                               ; preds = %2
  call void @llvm.lifetime.start.p0(i64 8, ptr %6) #24
  %19 = getelementptr inbounds nuw %"struct.Assimp::IFC::Schema_2x3::IfcCartesianPoint", ptr %0, i32 0, i32 2
  %20 = call ptr @_ZNSt6vectorIdSaIdEE5beginEv(ptr noundef nonnull align 8 dereferenceable(24) %19) #24
  %21 = getelementptr inbounds nuw %"class.__gnu_cxx::__normal_iterator.116", ptr %6, i32 0, i32 0
  store ptr %20, ptr %21, align 8
  call void @llvm.lifetime.start.p0(i64 8, ptr %7) #24
  %22 = getelementptr inbounds nuw %"struct.Assimp::IFC::Schema_2x3::IfcCartesianPoint", ptr %1, i32 0, i32 2
  %23 = call ptr @_ZNSt6vectorIdSaIdEE5beginEv(ptr noundef nonnull align 8 dereferenceable(24) %22) #24
  %24 = getelementptr inbounds nuw %"class.__gnu_cxx::__normal_iterator.116", ptr %7, i32 0, i32 0
  store ptr %23, ptr %24, align 8
  br label %25

25:                                               ; preds = %40, %18
  call void @llvm.lifetime.start.p0(i64 8, ptr %8) #24
  %26 = getelementptr inbounds nuw %"struct.Assimp::IFC::Schema_2x3::IfcCartesianPoint", ptr %0, i32 0, i32 2
  %27 = call ptr @_ZNSt6vectorIdSaIdEE3endEv(ptr noundef nonnull align 8 dereferenceable(24) %26) #24
  %28 = getelementptr inbounds nuw %"class.__gnu_cxx::__normal_iterator.116", ptr %8, i32 0, i32 0
  store ptr %27, ptr %28, align 8
  %29 = call noundef zeroext i1 @_ZN9__gnu_cxxneIPdSt6vectorIdSaIdEEEEbRKNS_17__normal_iteratorIT_T0_EESA_(ptr noundef nonnull align 8 dereferenceable(8) %6, ptr noundef nonnull align 8 dereferenceable(8) %8) #24
  call void @llvm.lifetime.end.p0(i64 8, ptr %8) #24
  br i1 %29, label %30, label %45

30:                                               ; preds = %25
  %31 = call noundef nonnull align 8 dereferenceable(8) ptr @_ZNK9__gnu_cxx17__normal_iteratorIPdSt6vectorIdSaIdEEEdeEv(ptr noundef nonnull align 8 dereferenceable(8) %6) #24
  %32 = load double, ptr %31, align 8
  %33 = call noundef nonnull align 8 dereferenceable(8) ptr @_ZNK9__gnu_cxx17__normal_iteratorIPdSt6vectorIdSaIdEEEdeEv(ptr noundef nonnull align 8 dereferenceable(8) %7) #24
  %34 = load double, ptr %33, align 8
  %35 = fsub double %32, %34
  %36 = call double @llvm.fabs.f64(double %35)
  %37 = fcmp ogt double %36, 0x3EB0C6F7A0000000
  br i1 %37, label %38, label %39

38:                                               ; preds = %30
  store i1 false, ptr %3, align 1
  store i32 1, ptr %9, align 4
  br label %46

39:                                               ; preds = %30
  br label %40

40:                                               ; preds = %39
  %41 = call ptr @_ZN9__gnu_cxx17__normal_iteratorIPdSt6vectorIdSaIdEEEppEi(ptr noundef nonnull align 8 dereferenceable(8) %6, i32 noundef 0) #24
  %42 = getelementptr inbounds nuw %"class.__gnu_cxx::__normal_iterator.116", ptr %10, i32 0, i32 0
  store ptr %41, ptr %42, align 8
  %43 = call ptr @_ZN9__gnu_cxx17__normal_iteratorIPdSt6vectorIdSaIdEEEppEi(ptr noundef nonnull align 8 dereferenceable(8) %7, i32 noundef 0) #24
  %44 = getelementptr inbounds nuw %"class.__gnu_cxx::__normal_iterator.116", ptr %11, i32 0, i32 0
  store ptr %43, ptr %44, align 8
  br label %25, !llvm.loop !21

45:                                               ; preds = %25
  store i1 true, ptr %3, align 1
  store i32 1, ptr %9, align 4
  br label %46

46:                                               ; preds = %45, %38
  call void @llvm.lifetime.end.p0(i64 8, ptr %7) #24
  call void @llvm.lifetime.end.p0(i64 8, ptr %6) #24
  br label %47

47:                                               ; preds = %46, %17
  %48 = load i1, ptr %3, align 1
  ret i1 %48
}