; Function Attrs: mustprogress uwtable
define hidden noundef zeroext i1 @_ZN6Assimp3IFC8areCloseENS0_10Schema_2x317IfcCartesianPointES2_(ptr noundef readonly captures(none) %0, ptr noundef readonly captures(none) %1) local_unnamed_addr #0 {
  %3 = alloca ptr, align 8
  %4 = getelementptr inbounds nuw i8, ptr %0, i64 64
  %5 = getelementptr inbounds nuw i8, ptr %0, i64 72
  %6 = load ptr, ptr %5, align 8
  %7 = load ptr, ptr %4, align 8
  %8 = ptrtoint ptr %6 to i64
  %9 = ptrtoint ptr %7 to i64
  %10 = sub i64 %8, %9
  %11 = getelementptr inbounds nuw i8, ptr %1, i64 64
  %12 = getelementptr inbounds nuw i8, ptr %1, i64 72
  %13 = load ptr, ptr %12, align 8
  %14 = load ptr, ptr %11, align 8
  %15 = ptrtoint ptr %13 to i64
  %16 = ptrtoint ptr %14 to i64
  %17 = sub i64 %15, %16
  %.not = icmp eq i64 %10, %17
  br i1 %.not, label %.preheader, label %18

.preheader:                                       ; preds = %2
  %.not78 = icmp eq ptr %7, %6
  br i1 %.not78, label %_ZN6Assimp12LogFunctionsINS_11IFCImporterEE7LogWarnIJRA49_KcEEEvDpOT_.exit, label %.lr.ph

18:                                               ; preds = %2
  %19 = tail call noundef zeroext i1 @_ZN6Assimp13DefaultLogger12isNullLoggerEv()
  br i1 %19, label %_ZN6Assimp12LogFunctionsINS_11IFCImporterEE7LogWarnIJRA49_KcEEEvDpOT_.exit, label %20

20:                                               ; preds = %18
  %21 = tail call noundef ptr @_ZN6Assimp13DefaultLogger3getEv()
  call void @llvm.lifetime.start.p0(i64 8, ptr nonnull %3) #31
  %22 = tail call noundef ptr @_ZN6Assimp12LogFunctionsINS_11IFCImporterEE6PrefixEv()
  store ptr %22, ptr %3, align 8
  call void @_ZN6Assimp6Logger4warnIJPKcRA49_S2_EEEvDpOT_(ptr noundef nonnull align 8 dereferenceable(12) %21, ptr noundef nonnull align 8 dereferenceable(8) %3, ptr noundef nonnull align 1 dereferenceable(49) @.str.7)
  call void @llvm.lifetime.end.p0(i64 8, ptr nonnull %3) #31
  br label %_ZN6Assimp12LogFunctionsINS_11IFCImporterEE7LogWarnIJRA49_KcEEEvDpOT_.exit

.lr.ph:                                           ; preds = %.preheader, %.lr.ph
  %.sroa.04.010 = phi ptr [ %28, %.lr.ph ], [ %7, %.preheader ]
  %.sroa.02.09 = phi ptr [ %29, %.lr.ph ], [ %14, %.preheader ]
  %23 = load double, ptr %.sroa.04.010, align 8
  %24 = load double, ptr %.sroa.02.09, align 8
  %25 = fsub double %23, %24
  %26 = tail call double @llvm.fabs.f64(double %25)
  %27 = fcmp ule double %26, 0x3EB0C6F7A0000000
  %28 = getelementptr inbounds nuw i8, ptr %.sroa.04.010, i64 8
  %29 = getelementptr inbounds nuw i8, ptr %.sroa.02.09, i64 8
  %.not7 = icmp ne ptr %28, %6
  %or.cond.not = select i1 %27, i1 %.not7, i1 false
  br i1 %or.cond.not, label %.lr.ph, label %_ZN6Assimp12LogFunctionsINS_11IFCImporterEE7LogWarnIJRA49_KcEEEvDpOT_.exit, !llvm.loop !120

_ZN6Assimp12LogFunctionsINS_11IFCImporterEE7LogWarnIJRA49_KcEEEvDpOT_.exit: ; preds = %.lr.ph, %.preheader, %20, %18
  %.0 = phi i1 [ false, %18 ], [ false, %20 ], [ true, %.preheader ], [ %27, %.lr.ph ]
  ret i1 %.0
}